; ModuleID = '35/802.c'
source_filename = "35/802.c"
target datalayout = "e-m:e-p270:32:32-p271:32:32-p272:64:64-i64:64-f80:128-n8:16:32:64-S128"
target triple = "x86_64-pc-linux-gnu"

@.str = private unnamed_addr constant [6 x i8] c"%d,%d\00", align 1
@.str.1 = private unnamed_addr constant [3 x i8] c"%d\00", align 1
@.str.2 = private unnamed_addr constant [6 x i8] c"%d+%d\00", align 1
@.str.3 = private unnamed_addr constant [3 x i8] c"No\00", align 1

; Function Attrs: noinline nounwind uwtable
define dso_local i32 @main() #0 {
  %1 = alloca i32, align 4
  %2 = alloca [8 x [8 x i32]], align 16
  %3 = alloca i32, align 4
  %4 = alloca i32, align 4
  %5 = alloca i32, align 4
  %6 = alloca i32, align 4
  %7 = alloca [8 x i32], align 16
  %8 = alloca [8 x i32], align 16
  %9 = alloca i32, align 4
  %10 = alloca i32, align 4
  %11 = alloca i32, align 4
  %12 = alloca i32, align 4
  store i32 0, i32* %1, align 4
  store i32 0, i32* %10, align 4
  %13 = call i32 (i8*, ...) @__isoc99_scanf(i8* getelementptr inbounds ([6 x i8], [6 x i8]* @.str, i64 0, i64 0), i32* %5, i32* %6)
  store i32 0, i32* %3, align 4
  br label %14

14:                                               ; preds = %35, %0
  %15 = load i32, i32* %3, align 4
  %16 = load i32, i32* %5, align 4
  %17 = icmp slt i32 %15, %16
  br i1 %17, label %18, label %38

18:                                               ; preds = %14
  store i32 0, i32* %4, align 4
  br label %19

19:                                               ; preds = %31, %18
  %20 = load i32, i32* %4, align 4
  %21 = load i32, i32* %6, align 4
  %22 = icmp slt i32 %20, %21
  br i1 %22, label %23, label %34

23:                                               ; preds = %19
  %24 = load i32, i32* %3, align 4
  %25 = sext i32 %24 to i64
  %26 = getelementptr inbounds [8 x [8 x i32]], [8 x [8 x i32]]* %2, i64 0, i64 %25
  %27 = load i32, i32* %4, align 4
  %28 = sext i32 %27 to i64
  %29 = getelementptr inbounds [8 x i32], [8 x i32]* %26, i64 0, i64 %28
  %30 = call i32 (i8*, ...) @__isoc99_scanf(i8* getelementptr inbounds ([3 x i8], [3 x i8]* @.str.1, i64 0, i64 0), i32* %29)
  br label %31

31:                                               ; preds = %23
  %32 = load i32, i32* %4, align 4
  %33 = add nsw i32 %32, 1
  store i32 %33, i32* %4, align 4
  br label %19

34:                                               ; preds = %19
  br label %35

35:                                               ; preds = %34
  %36 = load i32, i32* %3, align 4
  %37 = add nsw i32 %36, 1
  store i32 %37, i32* %3, align 4
  br label %14

38:                                               ; preds = %14
  store i32 0, i32* %3, align 4
  br label %39

39:                                               ; preds = %79, %38
  %40 = load i32, i32* %3, align 4
  %41 = load i32, i32* %5, align 4
  %42 = icmp slt i32 %40, %41
  br i1 %42, label %43, label %82

43:                                               ; preds = %39
  store i32 0, i32* %12, align 4
  store i32 0, i32* %4, align 4
  br label %44

44:                                               ; preds = %75, %43
  %45 = load i32, i32* %4, align 4
  %46 = load i32, i32* %6, align 4
  %47 = icmp slt i32 %45, %46
  br i1 %47, label %48, label %78

48:                                               ; preds = %44
  %49 = load i32, i32* %3, align 4
  %50 = sext i32 %49 to i64
  %51 = getelementptr inbounds [8 x [8 x i32]], [8 x [8 x i32]]* %2, i64 0, i64 %50
  %52 = load i32, i32* %4, align 4
  %53 = sext i32 %52 to i64
  %54 = getelementptr inbounds [8 x i32], [8 x i32]* %51, i64 0, i64 %53
  %55 = load i32, i32* %54, align 4
  %56 = load i32, i32* %3, align 4
  %57 = sext i32 %56 to i64
  %58 = getelementptr inbounds [8 x [8 x i32]], [8 x [8 x i32]]* %2, i64 0, i64 %57
  %59 = load i32, i32* %12, align 4
  %60 = sext i32 %59 to i64
  %61 = getelementptr inbounds [8 x i32], [8 x i32]* %58, i64 0, i64 %60
  %62 = load i32, i32* %61, align 4
  %63 = icmp slt i32 %55, %62
  br i1 %63, label %64, label %65

64:                                               ; preds = %48
  br label %74

65:                                               ; preds = %48
  %66 = load i32, i32* %3, align 4
  %67 = load i32, i32* %3, align 4
  %68 = sext i32 %67 to i64
  %69 = getelementptr inbounds [8 x i32], [8 x i32]* %7, i64 0, i64 %68
  store i32 %66, i32* %69, align 4
  %70 = load i32, i32* %4, align 4
  %71 = load i32, i32* %3, align 4
  %72 = sext i32 %71 to i64
  %73 = getelementptr inbounds [8 x i32], [8 x i32]* %8, i64 0, i64 %72
  store i32 %70, i32* %73, align 4
  store i32 %70, i32* %12, align 4
  br label %74

74:                                               ; preds = %65, %64
  br label %75

75:                                               ; preds = %74
  %76 = load i32, i32* %4, align 4
  %77 = add nsw i32 %76, 1
  store i32 %77, i32* %4, align 4
  br label %44

78:                                               ; preds = %44
  br label %79

79:                                               ; preds = %78
  %80 = load i32, i32* %3, align 4
  %81 = add nsw i32 %80, 1
  store i32 %81, i32* %3, align 4
  br label %39

82:                                               ; preds = %39
  store i32 0, i32* %3, align 4
  br label %83

83:                                               ; preds = %132, %82
  %84 = load i32, i32* %3, align 4
  %85 = load i32, i32* %5, align 4
  %86 = icmp slt i32 %84, %85
  br i1 %86, label %87, label %135

87:                                               ; preds = %83
  store i32 1, i32* %11, align 4
  store i32 0, i32* %4, align 4
  br label %88

88:                                               ; preds = %117, %87
  %89 = load i32, i32* %4, align 4
  %90 = load i32, i32* %5, align 4
  %91 = icmp slt i32 %89, %90
  br i1 %91, label %92, label %120

92:                                               ; preds = %88
  %93 = load i32, i32* %3, align 4
  %94 = sext i32 %93 to i64
  %95 = getelementptr inbounds [8 x [8 x i32]], [8 x [8 x i32]]* %2, i64 0, i64 %94
  %96 = load i32, i32* %3, align 4
  %97 = sext i32 %96 to i64
  %98 = getelementptr inbounds [8 x i32], [8 x i32]* %8, i64 0, i64 %97
  %99 = load i32, i32* %98, align 4
  %100 = sext i32 %99 to i64
  %101 = getelementptr inbounds [8 x i32], [8 x i32]* %95, i64 0, i64 %100
  %102 = load i32, i32* %101, align 4
  %103 = load i32, i32* %4, align 4
  %104 = sext i32 %103 to i64
  %105 = getelementptr inbounds [8 x [8 x i32]], [8 x [8 x i32]]* %2, i64 0, i64 %104
  %106 = load i32, i32* %3, align 4
  %107 = sext i32 %106 to i64
  %108 = getelementptr inbounds [8 x i32], [8 x i32]* %8, i64 0, i64 %107
  %109 = load i32, i32* %108, align 4
  %110 = sext i32 %109 to i64
  %111 = getelementptr inbounds [8 x i32], [8 x i32]* %105, i64 0, i64 %110
  %112 = load i32, i32* %111, align 4
  %113 = icmp sgt i32 %102, %112
  br i1 %113, label %114, label %116

114:                                              ; preds = %92
  store i32 0, i32* %11, align 4
  %115 = load i32, i32* %5, align 4
  store i32 %115, i32* %4, align 4
  br label %116

116:                                              ; preds = %114, %92
  br label %117

117:                                              ; preds = %116
  %118 = load i32, i32* %4, align 4
  %119 = add nsw i32 %118, 1
  store i32 %119, i32* %4, align 4
  br label %88

120:                                              ; preds = %88
  %121 = load i32, i32* %11, align 4
  %122 = icmp eq i32 %121, 1
  br i1 %122, label %123, label %131

123:                                              ; preds = %120
  %124 = load i32, i32* %3, align 4
  %125 = load i32, i32* %3, align 4
  %126 = sext i32 %125 to i64
  %127 = getelementptr inbounds [8 x i32], [8 x i32]* %8, i64 0, i64 %126
  %128 = load i32, i32* %127, align 4
  %129 = call i32 (i8*, ...) @printf(i8* getelementptr inbounds ([6 x i8], [6 x i8]* @.str.2, i64 0, i64 0), i32 %124, i32 %128)
  %130 = load i32, i32* %5, align 4
  store i32 %130, i32* %3, align 4
  br label %131

131:                                              ; preds = %123, %120
  br label %132

132:                                              ; preds = %131
  %133 = load i32, i32* %3, align 4
  %134 = add nsw i32 %133, 1
  store i32 %134, i32* %3, align 4
  br label %83

135:                                              ; preds = %83
  %136 = load i32, i32* %11, align 4
  %137 = icmp eq i32 %136, 0
  br i1 %137, label %138, label %140

138:                                              ; preds = %135
  %139 = call i32 (i8*, ...) @printf(i8* getelementptr inbounds ([3 x i8], [3 x i8]* @.str.3, i64 0, i64 0))
  br label %140

140:                                              ; preds = %138, %135
  ret i32 0
}

declare dso_local i32 @__isoc99_scanf(i8*, ...) #1

declare dso_local i32 @printf(i8*, ...) #1


!llvm.module.flags = !{!0}
!llvm.ident = !{!1}

!0 = !{i32 1, !"wchar_size", i32 4}
!1 = !{!"clang version 10.0.0-4ubuntu1 "}
